target datalayout = "e-m:e-p270:32:32-p271:32:32-p272:64:64-i64:64-i128:128-f80:128-n8:16:32:64-S128"
target triple = "x86_64-pc-linux-gnu"

%struct.SurfaceDataRasInfo = type { %struct.SurfaceDataBounds, ptr, i32, i32, i32, i32, ptr, ptr, ptr, ptr, ptr, ptr, i32, %union.anon.0 }
%struct.SurfaceDataBounds = type { i32, i32, i32, i32 }
%union.anon.0 = type { ptr, [56 x i8] }

; Function Attrs: nounwind uwtable
define hidden void @IntArgbToByteIndexedScaleConvert(ptr noundef %0, ptr noundef %1, i32 noundef %2, i32 noundef %3, i32 noundef %4, i32 noundef %5, i32 noundef %6, i32 noundef %7, i32 noundef %8, ptr noundef %9, ptr noundef %10, ptr noundef %11, ptr noundef %12) #0 {
  %14 = alloca ptr, align 8
  %15 = alloca ptr, align 8
  %16 = alloca i32, align 4
  %17 = alloca i32, align 4
  %18 = alloca i32, align 4
  %19 = alloca i32, align 4
  %20 = alloca i32, align 4
  %21 = alloca i32, align 4
  %22 = alloca i32, align 4
  %23 = alloca ptr, align 8
  %24 = alloca ptr, align 8
  %25 = alloca ptr, align 8
  %26 = alloca ptr, align 8
  %27 = alloca i32, align 4
  %28 = alloca i32, align 4
  %29 = alloca i32, align 4
  %30 = alloca ptr, align 8
  %31 = alloca ptr, align 8
  %32 = alloca ptr, align 8
  %33 = alloca ptr, align 8
  %34 = alloca ptr, align 8
  %35 = alloca ptr, align 8
  %36 = alloca i32, align 4
  %37 = alloca i32, align 4
  %38 = alloca i32, align 4
  %39 = alloca i32, align 4
  %40 = alloca i32, align 4
  %41 = alloca i32, align 4
  %42 = alloca i32, align 4
  %43 = alloca i32, align 4
  %44 = alloca i32, align 4
  store ptr %0, ptr %14, align 8
  store ptr %1, ptr %15, align 8
  store i32 %2, ptr %16, align 4
  store i32 %3, ptr %17, align 4
  store i32 %4, ptr %18, align 4
  store i32 %5, ptr %19, align 4
  store i32 %6, ptr %20, align 4
  store i32 %7, ptr %21, align 4
  store i32 %8, ptr %22, align 4
  store ptr %9, ptr %23, align 8
  store ptr %10, ptr %24, align 8
  store ptr %11, ptr %25, align 8
  store ptr %12, ptr %26, align 8
  br label %45

45:                                               ; preds = %13
  %46 = load ptr, ptr %15, align 8
  store ptr %46, ptr %35, align 8
  %47 = load ptr, ptr %23, align 8
  %48 = getelementptr inbounds %struct.SurfaceDataRasInfo, ptr %47, i32 0, i32 4
  %49 = load i32, ptr %48, align 8
  store i32 %49, ptr %36, align 4
  %50 = load ptr, ptr %24, align 8
  %51 = getelementptr inbounds %struct.SurfaceDataRasInfo, ptr %50, i32 0, i32 4
  %52 = load i32, ptr %51, align 8
  store i32 %52, ptr %37, align 4
  br label %53

53:                                               ; preds = %45
  br label %54

54:                                               ; preds = %53
  %55 = load ptr, ptr %24, align 8
  %56 = getelementptr inbounds %struct.SurfaceDataRasInfo, ptr %55, i32 0, i32 0
  %57 = getelementptr inbounds %struct.SurfaceDataBounds, ptr %56, i32 0, i32 1
  %58 = load i32, ptr %57, align 4
  %59 = and i32 %58, 7
  %60 = shl i32 %59, 3
  store i32 %60, ptr %28, align 4
  br label %61

61:                                               ; preds = %54
  %62 = load ptr, ptr %24, align 8
  %63 = getelementptr inbounds %struct.SurfaceDataRasInfo, ptr %62, i32 0, i32 7
  %64 = load ptr, ptr %63, align 8
  store ptr %64, ptr %33, align 8
  %65 = load ptr, ptr %24, align 8
  %66 = getelementptr inbounds %struct.SurfaceDataRasInfo, ptr %65, i32 0, i32 12
  %67 = load i32, ptr %66, align 8
  store i32 %67, ptr %29, align 4
  br label %68

68:                                               ; preds = %61
  %69 = load i32, ptr %16, align 4
  %70 = mul i32 %69, 1
  %71 = load i32, ptr %37, align 4
  %72 = sub i32 %71, %70
  store i32 %72, ptr %37, align 4
  br label %73

73:                                               ; preds = %276, %68
  %74 = load i32, ptr %16, align 4
  store i32 %74, ptr %38, align 4
  %75 = load i32, ptr %18, align 4
  store i32 %75, ptr %39, align 4
  %76 = load ptr, ptr %14, align 8
  %77 = ptrtoint ptr %76 to i64
  %78 = load i32, ptr %19, align 4
  %79 = load i32, ptr %22, align 4
  %80 = ashr i32 %78, %79
  %81 = sext i32 %80 to i64
  %82 = load i32, ptr %36, align 4
  %83 = sext i32 %82 to i64
  %84 = mul nsw i64 %81, %83
  %85 = add nsw i64 %77, %84
  %86 = inttoptr i64 %85 to ptr
  store ptr %86, ptr %34, align 8
  br label %87

87:                                               ; preds = %73
  %88 = load ptr, ptr %24, align 8
  %89 = getelementptr inbounds %struct.SurfaceDataRasInfo, ptr %88, i32 0, i32 8
  %90 = load ptr, ptr %89, align 8
  %91 = load i32, ptr %28, align 4
  %92 = sext i32 %91 to i64
  %93 = getelementptr inbounds i8, ptr %90, i64 %92
  store ptr %93, ptr %30, align 8
  %94 = load ptr, ptr %24, align 8
  %95 = getelementptr inbounds %struct.SurfaceDataRasInfo, ptr %94, i32 0, i32 9
  %96 = load ptr, ptr %95, align 8
  %97 = load i32, ptr %28, align 4
  %98 = sext i32 %97 to i64
  %99 = getelementptr inbounds i8, ptr %96, i64 %98
  store ptr %99, ptr %31, align 8
  %100 = load ptr, ptr %24, align 8
  %101 = getelementptr inbounds %struct.SurfaceDataRasInfo, ptr %100, i32 0, i32 10
  %102 = load ptr, ptr %101, align 8
  %103 = load i32, ptr %28, align 4
  %104 = sext i32 %103 to i64
  %105 = getelementptr inbounds i8, ptr %102, i64 %104
  store ptr %105, ptr %32, align 8
  %106 = load ptr, ptr %24, align 8
  %107 = getelementptr inbounds %struct.SurfaceDataRasInfo, ptr %106, i32 0, i32 0
  %108 = getelementptr inbounds %struct.SurfaceDataBounds, ptr %107, i32 0, i32 0
  %109 = load i32, ptr %108, align 8
  %110 = and i32 %109, 7
  store i32 %110, ptr %27, align 4
  br label %111

111:                                              ; preds = %87
  br label %112

112:                                              ; preds = %259, %111
  %113 = load i32, ptr %39, align 4
  %114 = load i32, ptr %22, align 4
  %115 = ashr i32 %113, %114
  store i32 %115, ptr %40, align 4
  br label %116

116:                                              ; preds = %112
  br label %117

117:                                              ; preds = %116
  %118 = load ptr, ptr %34, align 8
  %119 = load i32, ptr %40, align 4
  %120 = sext i32 %119 to i64
  %121 = getelementptr inbounds i32, ptr %118, i64 %120
  %122 = load i32, ptr %121, align 4
  store i32 %122, ptr %44, align 4
  br label %123

123:                                              ; preds = %117
  %124 = load i32, ptr %44, align 4
  %125 = and i32 %124, 255
  store i32 %125, ptr %43, align 4
  %126 = load i32, ptr %44, align 4
  %127 = ashr i32 %126, 8
  %128 = and i32 %127, 255
  store i32 %128, ptr %42, align 4
  %129 = load i32, ptr %44, align 4
  %130 = ashr i32 %129, 16
  %131 = and i32 %130, 255
  store i32 %131, ptr %41, align 4
  br label %132

132:                                              ; preds = %123
  br label %133

133:                                              ; preds = %132
  br label %134

134:                                              ; preds = %133
  %135 = load i32, ptr %41, align 4
  %136 = icmp eq i32 %135, 0
  br i1 %136, label %140, label %137

137:                                              ; preds = %134
  %138 = load i32, ptr %41, align 4
  %139 = icmp eq i32 %138, 255
  br i1 %139, label %140, label %155

140:                                              ; preds = %137, %134
  %141 = load i32, ptr %42, align 4
  %142 = icmp eq i32 %141, 0
  br i1 %142, label %146, label %143

143:                                              ; preds = %140
  %144 = load i32, ptr %42, align 4
  %145 = icmp eq i32 %144, 255
  br i1 %145, label %146, label %155

146:                                              ; preds = %143, %140
  %147 = load i32, ptr %43, align 4
  %148 = icmp eq i32 %147, 0
  br i1 %148, label %152, label %149

149:                                              ; preds = %146
  %150 = load i32, ptr %43, align 4
  %151 = icmp eq i32 %150, 255
  br i1 %151, label %152, label %155

152:                                              ; preds = %149, %146
  %153 = load i32, ptr %29, align 4
  %154 = icmp ne i32 %153, 0
  br i1 %154, label %180, label %155

155:                                              ; preds = %152, %149, %143, %137
  %156 = load ptr, ptr %30, align 8
  %157 = load i32, ptr %27, align 4
  %158 = sext i32 %157 to i64
  %159 = getelementptr inbounds i8, ptr %156, i64 %158
  %160 = load i8, ptr %159, align 1
  %161 = sext i8 %160 to i32
  %162 = load i32, ptr %41, align 4
  %163 = add nsw i32 %162, %161
  store i32 %163, ptr %41, align 4
  %164 = load ptr, ptr %31, align 8
  %165 = load i32, ptr %27, align 4
  %166 = sext i32 %165 to i64
  %167 = getelementptr inbounds i8, ptr %164, i64 %166
  %168 = load i8, ptr %167, align 1
  %169 = sext i8 %168 to i32
  %170 = load i32, ptr %42, align 4
  %171 = add nsw i32 %170, %169
  store i32 %171, ptr %42, align 4
  %172 = load ptr, ptr %32, align 8
  %173 = load i32, ptr %27, align 4
  %174 = sext i32 %173 to i64
  %175 = getelementptr inbounds i8, ptr %172, i64 %174
  %176 = load i8, ptr %175, align 1
  %177 = sext i8 %176 to i32
  %178 = load i32, ptr %43, align 4
  %179 = add nsw i32 %178, %177
  store i32 %179, ptr %43, align 4
  br label %180

180:                                              ; preds = %155, %152
  br label %181

181:                                              ; preds = %180
  %182 = load i32, ptr %41, align 4
  %183 = load i32, ptr %42, align 4
  %184 = or i32 %182, %183
  %185 = load i32, ptr %43, align 4
  %186 = or i32 %184, %185
  %187 = ashr i32 %186, 8
  %188 = icmp ne i32 %187, 0
  br i1 %188, label %189, label %223

189:                                              ; preds = %181
  br label %190

190:                                              ; preds = %189
  %191 = load i32, ptr %41, align 4
  %192 = ashr i32 %191, 8
  %193 = icmp ne i32 %192, 0
  br i1 %193, label %194, label %199

194:                                              ; preds = %190
  %195 = load i32, ptr %41, align 4
  %196 = ashr i32 %195, 31
  %197 = xor i32 %196, -1
  %198 = and i32 %197, 255
  store i32 %198, ptr %41, align 4
  br label %199

199:                                              ; preds = %194, %190
  br label %200

200:                                              ; preds = %199
  br label %201

201:                                              ; preds = %200
  %202 = load i32, ptr %42, align 4
  %203 = ashr i32 %202, 8
  %204 = icmp ne i32 %203, 0
  br i1 %204, label %205, label %210

205:                                              ; preds = %201
  %206 = load i32, ptr %42, align 4
  %207 = ashr i32 %206, 31
  %208 = xor i32 %207, -1
  %209 = and i32 %208, 255
  store i32 %209, ptr %42, align 4
  br label %210

210:                                              ; preds = %205, %201
  br label %211

211:                                              ; preds = %210
  br label %212

212:                                              ; preds = %211
  %213 = load i32, ptr %43, align 4
  %214 = ashr i32 %213, 8
  %215 = icmp ne i32 %214, 0
  br i1 %215, label %216, label %221

216:                                              ; preds = %212
  %217 = load i32, ptr %43, align 4
  %218 = ashr i32 %217, 31
  %219 = xor i32 %218, -1
  %220 = and i32 %219, 255
  store i32 %220, ptr %43, align 4
  br label %221

221:                                              ; preds = %216, %212
  br label %222

222:                                              ; preds = %221
  br label %223

223:                                              ; preds = %222, %181
  br label %224

224:                                              ; preds = %223
  %225 = load ptr, ptr %33, align 8
  %226 = load i32, ptr %41, align 4
  %227 = trunc i32 %226 to i8
  %228 = zext i8 %227 to i32
  %229 = ashr i32 %228, 3
  %230 = shl i32 %229, 10
  %231 = load i32, ptr %42, align 4
  %232 = trunc i32 %231 to i8
  %233 = zext i8 %232 to i32
  %234 = ashr i32 %233, 3
  %235 = shl i32 %234, 5
  %236 = add nsw i32 %230, %235
  %237 = load i32, ptr %43, align 4
  %238 = trunc i32 %237 to i8
  %239 = zext i8 %238 to i32
  %240 = ashr i32 %239, 3
  %241 = add nsw i32 %236, %240
  %242 = sext i32 %241 to i64
  %243 = getelementptr inbounds i8, ptr %225, i64 %242
  %244 = load i8, ptr %243, align 1
  %245 = load ptr, ptr %35, align 8
  %246 = getelementptr inbounds i8, ptr %245, i64 0
  store i8 %244, ptr %246, align 1
  br label %247

247:                                              ; preds = %224
  br label %248

248:                                              ; preds = %247
  %249 = load ptr, ptr %35, align 8
  %250 = ptrtoint ptr %249 to i64
  %251 = add nsw i64 %250, 1
  %252 = inttoptr i64 %251 to ptr
  store ptr %252, ptr %35, align 8
  %253 = load i32, ptr %27, align 4
  %254 = add nsw i32 %253, 1
  %255 = and i32 %254, 7
  store i32 %255, ptr %27, align 4
  %256 = load i32, ptr %20, align 4
  %257 = load i32, ptr %39, align 4
  %258 = add nsw i32 %257, %256
  store i32 %258, ptr %39, align 4
  br label %259

259:                                              ; preds = %248
  %260 = load i32, ptr %38, align 4
  %261 = add i32 %260, -1
  store i32 %261, ptr %38, align 4
  %262 = icmp ugt i32 %261, 0
  br i1 %262, label %112, label %263, !llvm.loop !18

263:                                              ; preds = %259
  %264 = load ptr, ptr %35, align 8
  %265 = ptrtoint ptr %264 to i64
  %266 = load i32, ptr %37, align 4
  %267 = sext i32 %266 to i64
  %268 = add nsw i64 %265, %267
  %269 = inttoptr i64 %268 to ptr
  store ptr %269, ptr %35, align 8
  %270 = load i32, ptr %28, align 4
  %271 = add nsw i32 %270, 8
  %272 = and i32 %271, 56
  store i32 %272, ptr %28, align 4
  %273 = load i32, ptr %21, align 4
  %274 = load i32, ptr %19, align 4
  %275 = add nsw i32 %274, %273
  store i32 %275, ptr %19, align 4
  br label %276

276:                                              ; preds = %263
  %277 = load i32, ptr %17, align 4
  %278 = add i32 %277, -1
  store i32 %278, ptr %17, align 4
  %279 = icmp ugt i32 %278, 0
  br i1 %279, label %73, label %280, !llvm.loop !19

280:                                              ; preds = %276
  br label %281

281:                                              ; preds = %280
  ret void
}