; Function Attrs: nofree norecurse nosync nounwind memory(readwrite, inaccessiblemem: none) uwtable
define hidden void @IntArgbToByteIndexedScaleConvert(ptr noundef %0, ptr noundef %1, i32 noundef %2, i32 noundef %3, i32 noundef %4, i32 noundef %5, i32 noundef %6, i32 noundef %7, i32 noundef %8, ptr nocapture noundef readonly %9, ptr nocapture noundef readonly %10, ptr nocapture readnone %11, ptr nocapture readnone %12) #0 {
  %14 = getelementptr inbounds i8, ptr %9, i64 32
  %15 = load i32, ptr %14, align 8
  %16 = getelementptr inbounds i8, ptr %10, i64 32
  %17 = load i32, ptr %16, align 8
  %18 = getelementptr inbounds i8, ptr %10, i64 4
  %19 = load i32, ptr %18, align 4
  %20 = shl i32 %19, 3
  %21 = getelementptr inbounds i8, ptr %10, i64 48
  %22 = load ptr, ptr %21, align 8
  %23 = getelementptr inbounds i8, ptr %10, i64 88
  %24 = load i32, ptr %23, align 8
  %25 = sub i32 %17, %2
  %26 = sext i32 %25 to i64
  %27 = ptrtoint ptr %0 to i64
  %28 = sext i32 %15 to i64
  %29 = getelementptr inbounds i8, ptr %10, i64 56
  %30 = getelementptr inbounds i8, ptr %10, i64 64
  %31 = getelementptr inbounds i8, ptr %10, i64 72
  %32 = icmp ne i32 %24, 0
  br label %33

33:                                               ; preds = %102, %13
  %.087.in = phi i32 [ %20, %13 ], [ %105, %102 ]
  %.085 = phi ptr [ %1, %13 ], [ %104, %102 ]
  %.081 = phi i32 [ %5, %13 ], [ %106, %102 ]
  %.0 = phi i32 [ %3, %13 ], [ %107, %102 ]
  %.087 = and i32 %.087.in, 56
  %34 = ashr i32 %.081, %8
  %35 = sext i32 %34 to i64
  %36 = mul nsw i64 %35, %28
  %37 = add nsw i64 %36, %27
  %38 = inttoptr i64 %37 to ptr
  %39 = load ptr, ptr %29, align 8
  %40 = zext nneg i32 %.087 to i64
  %41 = getelementptr inbounds i8, ptr %39, i64 %40
  %42 = load ptr, ptr %30, align 8
  %43 = getelementptr inbounds i8, ptr %42, i64 %40
  %44 = load ptr, ptr %31, align 8
  %45 = getelementptr inbounds i8, ptr %44, i64 %40
  %46 = load i32, ptr %10, align 8
  br label %47

47:                                               ; preds = %85, %33
  %.186 = phi ptr [ %.085, %33 ], [ %98, %85 ]
  %.084.in = phi i32 [ %46, %33 ], [ %99, %85 ]
  %.083 = phi i32 [ %2, %33 ], [ %101, %85 ]
  %.082 = phi i32 [ %4, %33 ], [ %100, %85 ]
  %.084 = and i32 %.084.in, 7
  %48 = ashr i32 %.082, %8
  %49 = sext i32 %48 to i64
  %50 = getelementptr inbounds i32, ptr %38, i64 %49
  %51 = load i32, ptr %50, align 4
  %52 = and i32 %51, 255
  %53 = lshr i32 %51, 8
  %54 = and i32 %53, 255
  %55 = lshr i32 %51, 16
  %56 = and i32 %55, 255
  %trunc = trunc i32 %55 to i8
  switch i8 %trunc, label %61 [
    i8 -1, label %57
    i8 0, label %57
  ]

57:                                               ; preds = %47, %47
  %trunc97 = trunc i32 %53 to i8
  switch i8 %trunc97, label %61 [
    i8 -1, label %58
    i8 0, label %58
  ]

58:                                               ; preds = %57, %57
  %59 = icmp eq i32 %52, 0
  %60 = icmp eq i32 %52, 255
  %or.cond5 = or i1 %59, %60
  %or.cond7 = select i1 %or.cond5, i1 %32, i1 false
  br i1 %or.cond7, label %75, label %61

61:                                               ; preds = %57, %47, %58
  %62 = zext nneg i32 %.084 to i64
  %63 = getelementptr inbounds i8, ptr %41, i64 %62
  %64 = load i8, ptr %63, align 1
  %65 = sext i8 %64 to i32
  %66 = add nsw i32 %56, %65
  %67 = getelementptr inbounds i8, ptr %43, i64 %62
  %68 = load i8, ptr %67, align 1
  %69 = sext i8 %68 to i32
  %70 = add nsw i32 %54, %69
  %71 = getelementptr inbounds i8, ptr %45, i64 %62
  %72 = load i8, ptr %71, align 1
  %73 = sext i8 %72 to i32
  %74 = add nsw i32 %52, %73
  br label %75

75:                                               ; preds = %61, %58
  %.078 = phi i32 [ %56, %58 ], [ %66, %61 ]
  %.076 = phi i32 [ %54, %58 ], [ %70, %61 ]
  %.075 = phi i32 [ %52, %58 ], [ %74, %61 ]
  %76 = or i32 %.076, %.078
  %77 = or i32 %76, %.075
  %.not = icmp ult i32 %77, 256
  br i1 %.not, label %85, label %78

78:                                               ; preds = %75
  %79 = tail call i32 @llvm.smax.i32(i32 %.078, i32 0)
  %80 = tail call i32 @llvm.umin.i32(i32 %79, i32 255)
  %81 = tail call i32 @llvm.smax.i32(i32 %.076, i32 0)
  %82 = tail call i32 @llvm.umin.i32(i32 %81, i32 255)
  %.not93 = icmp ult i32 %.075, 256
  br i1 %.not93, label %85, label %83

83:                                               ; preds = %78
  %isnotneg.inv94 = icmp slt i32 %.075, 0
  %84 = select i1 %isnotneg.inv94, i32 0, i32 255
  br label %85

85:                                               ; preds = %75, %78, %83
  %.280 = phi i32 [ %80, %83 ], [ %80, %78 ], [ %.078, %75 ]
  %.2 = phi i32 [ %82, %83 ], [ %82, %78 ], [ %.076, %75 ]
  %.1 = phi i32 [ %84, %83 ], [ %.075, %78 ], [ %.075, %75 ]
  %86 = shl nsw i32 %.280, 7
  %87 = and i32 %86, 31744
  %88 = shl nsw i32 %.2, 2
  %89 = and i32 %88, 992
  %90 = or disjoint i32 %89, %87
  %91 = lshr i32 %.1, 3
  %92 = or disjoint i32 %90, %91
  %93 = zext nneg i32 %92 to i64
  %94 = getelementptr inbounds i8, ptr %22, i64 %93
  %95 = load i8, ptr %94, align 1
  store i8 %95, ptr %.186, align 1
  %96 = ptrtoint ptr %.186 to i64
  %97 = add nsw i64 %96, 1
  %98 = inttoptr i64 %97 to ptr
  %99 = add nuw nsw i32 %.084, 1
  %100 = add nsw i32 %.082, %6
  %101 = add i32 %.083, -1
  %.not95 = icmp eq i32 %101, 0
  br i1 %.not95, label %102, label %47, !llvm.loop !19

102:                                              ; preds = %85
  %103 = add nsw i64 %97, %26
  %104 = inttoptr i64 %103 to ptr
  %105 = add nuw nsw i32 %.087, 8
  %106 = add nsw i32 %.081, %7
  %107 = add i32 %.0, -1
  %.not96 = icmp eq i32 %107, 0
  br i1 %.not96, label %108, label %33, !llvm.loop !20

108:                                              ; preds = %102
  ret void
}